(dp1
I0
(dp2
S'Root'
p3
I87495
ssI1
(dp4
S'Eukaryota'
p5
I171
sS'Archaea'
p6
I29
sS'Bacteria'
p7
I87295
ssI2
(dp8
S'Spirochaetes'
p9
I160
sS'Verrucomicrobia'
p10
I1175
sS'Parabasalia'
p11
I2
sS'environmental samples'
p12
I58
sS'stramenopiles'
p13
I11
sS'Elusimicrobia'
p14
I7
sS'Chloroflexi'
p15
I6
sS'Amoebozoa'
p16
I12
sS'Fungi'
p17
I3
sS'Actinobacteria'
p18
I2339
sS'Alveolata'
p19
I85
sS'Deferribacteres'
p20
I26
sS'Fusobacteria'
p21
I321
sS'Synergistetes'
p22
I25
sS'Chlamydiae'
p23
I2
sS'Candidate division SR1'
p24
I2
sS'Crenarchaeota'
p25
I1
sS'RF3'
p26
I19
sS'Tenericutes'
p27
I517
sS'Lentisphaerae'
p28
I333
sS'Fibrobacteres'
p29
I64
sS'Bacteroidetes'
p30
I18102
sS'Planctomycetes'
p31
I10
sS'Candidate division OP10'
p32
I2
sS'Cyanobacteria'
p33
I188
sS'Euryarchaeota'
p34
I28
sS'Firmicutes'
p35
I60312
sS'Deinococcus-Thermus'
p36
I1
sS'Candidate division TM7'
p37
I33
sS'Proteobacteria'
p38
I3650
sS'Candidate division OP11'
p39
I1
ssI3
(dp40
S''
I58
sS'Flavobacteria'
p41
I34
sS'Blastocystis'
p42
I11
sS'Mollicutes'
p43
I517
sS'SHA-109'
p44
I62
sS'Trichomonadida'
p45
I1
sS'Sphingobacteria'
p46
I39
sS'Thermoplasmata'
p47
I1
sS'SHA-35'
p48
I1
sS'Deltaproteobacteria'
p49
I97
sS'Betaproteobacteria'
p50
I641
sS'Opitutae'
p51
I25
sS'Bacteroidia'
p52
I18002
sS'Apicomplexa'
p53
I64
sS'Methanomicrobia'
p54
I15
sS'Erysipelotrichi'
p55
I2944
sS'Synergistia'
p56
I25
sS'Methanobacteria'
p57
I12
sS'Microsporidia'
p58
I1
sS'Thermoprotei'
p59
I1
sS'Archamoebae'
p60
I12
sS'Fibrobacteria'
p61
I64
sS'Epsilonproteobacteria'
p62
I85
sS'Tritrichomonadida'
p63
I1
sS'Clostridia'
p64
I53781
sS'Lentisphaeria'
p65
I333
sS'Verrucomicrobiae'
p66
I1150
sS'Chloroplast'
p67
I4
sS'Gammaproteobacteria'
p68
I2725
sS'Ciliophora'
p69
I21
sS'Planctomycetacia'
p70
I10
sS'Bacilli'
p71
I3587
sS'VC2.1 Bac22'
p72
I27
sS'4C0d-2'
p73
I122
sS'Dikarya'
p74
I2
sS'Alphaproteobacteria'
p75
I102
ssI4
(dp76
S''
I11
sS'Coccidia'
p77
I64
sS'BS5'
p78
I5
sS'Ascomycota'
p79
I2
sS'4-15'
p80
I2
sS'B38'
p81
I32
sS'PB1-aai25f07'
p82
I2
sS'Dientamoebidae'
p83
I1
sS'Entamoebidae'
p84
I12
sS'Coriobacteridae'
p85
I1076
sS'Intramacronucleata'
p86
I21
sS'RF9'
p87
I454
sS'RFP12 gut group'
p88
I298
sS'Actinobacteridae'
p89
I1263
sS'vadinHA64'
p90
I25
sS'Trichomonadidae'
p91
I1
sS'WCHB1-25'
p92
I1
sS'EMP-G18'
p93
I5
sS'Enterocytozoonidae'
p94
I1
ssI5
(dp95
S'Thermoanaerobacterales'
p96
I2
sS'Vibrionales'
p97
I23
sS'Verrucomicrobiales'
p98
I1150
sS'Sulfolobales'
p99
I1
sS'Rickettsiales'
p100
I1
sS'Actinomycetales'
p101
I797
sS'Thermoanerobacterales'
p102
I2
sS'Pasteurellales'
p103
I30
sS'Enterocytozoon'
p104
I1
sS'Saccharomyceta'
p105
I2
sS'Planctomycetales'
p106
I10
sS'Sphingobacteriales'
p107
I39
sS'Erysipelotrichales'
p108
I2944
sS'Neisseriales'
p109
I58
sS'Sphingomonadales'
p110
I9
sS'Chlamydiales'
p111
I2
sS'Thermoplasmatales'
p112
I1
sS'Clostridiales'
p113
I53777
sS'Victivallales'
p114
I29
sS'Bifidobacteriales'
p115
I452
sS'Entamoeba'
p116
I12
sS'Oceanospirillales'
p117
I147
sS'Bacillales'
p118
I855
sS'Methanosarcinales'
p119
I2
sS'Fibrobacterales'
p120
I64
sS'Deferribacterales'
p121
I26
sS'Lactobacillales'
p122
I2730
sS'Burkholderiales'
p123
I577
sS'Fusobacteriales'
p124
I320
sS'Methanomicrobiales'
p125
I13
sS'Deinococcales'
p126
I1
sS'Aeromonadales'
p127
I616
sS'Rhodospirillales'
p128
I59
sS'Litostomatea'
p129
I21
sS'Methanobacteriales'
p130
I12
sS'Coriobacteriales'
p131
I1076
sS'Nitrosomonadales'
p132
I1
sS'Spirochaetales'
p133
I160
sS'Anaeroplasmatales'
p134
I51
sS'Mycoplasmatales'
p135
I7
sS'Flavobacteriales'
p136
I34
sS'Alteromonadales'
p137
I5
sS'Rhizobiales'
p138
I14
sS'Rhodocyclales'
p139
I5
sS'Campylobacterales'
p140
I85
sS'RL185-aaj71c12'
p141
I14
sS'Elusimicrobiales'
p142
I7
sS'Rhodobacterales'
p143
I6
sS'Synergistales'
p144
I25
sS'Enterobacteriales'
p145
I1503
sS'Desulfuromonadales'
p146
I2
sS'Xanthomonadales'
p147
I23
sS'Eucoccidiorida'
p148
I64
sS'Bacteroidales'
p149
I18002
sS'Desulfovibrionales'
p150
I94
sS'Caulobacterales'
p151
I13
sS'Myxococcales'
p152
I1
sS'Pseudomonadales'
p153
I344
ssI6
(dp154
S''
I13
sS'Eimeriorina'
p155
I64
sS'Rs-D42'
p156
I1
sS'S24-7'
p157
I1632
sS'WA-aaa01f12'
p158
I1
sS'gir-aah93h0'
p159
I7
sS'CFT112H7'
p160
I19
sS'RF16'
p161
I71
sS'ratAN060301C'
p162
I3
sS'P. palm C-A 51'
p163
I1
sS'Saccharomycotina'
p164
I1
sS'vadinHA17'
p165
I1
sS'BS11 gut group'
p166
I349
sS'Streptomycineae'
p167
I2
sS'Actinomycineae'
p168
I4
sS'boneC3G7'
p169
I8
sS'CAP-aah99b04'
p170
I3
sS'Streptosporangineae'
p171
I3
sS'MOB164'
p172
I1
sS'Anaerolineae'
p173
I6
sS'Family XII Incertae Sedis'
p174
I30
sS'p-2534-18B5 gut group'
p175
I40
sS'vadinCA11 gut group'
p176
I1
sS'Micrococcineae'
p177
I710
sS'Candidatus Captivus'
p178
I1
sS'GR-WP33-58'
p179
I2
sS'Propionibacterineae'
p180
I11
sS'M2PB4-65 termite group'
p181
I2
sS'Family XI Incertae Sedis'
p182
I13
sS'Trichostomatia'
p183
I21
sS'ASCC02'
p184
I1
sS'Pezizomycotina'
p185
I1
sS'mle1-27'
p186
I1
sS'Hados.Sed.Eubac.3'
p187
I1
sS'Corynebacterineae'
p188
I67
sS'BD2-2'
p189
I11
sS'Family XIII Incertae Sedis'
p190
I387
sS'Coriobacterineae'
p191
I1076
ssI7
(dp192
S'Listeriaceae'
p193
I2
sS'Thermodesulfobiaceae'
p194
I2
sS'Shewanellaceae'
p195
I1
sS'Actinomycetaceae'
p196
I4
sS'Nocardiaceae'
p197
I19
sS'Neisseriaceae'
p198
I58
sS'Nocardioidaceae'
p199
I5
sS'Rhodospirillaceae'
p200
I56
sS'Entodiniomorphida'
p201
I19
sS'Erysipelotrichaceae'
p202
I2944
sS'Dermabacteraceae'
p203
I3
sS'Methanosarcinaceae'
p204
I2
sS'Lactobacillaceae'
p205
I880
sS'Rhizobiaceae'
p206
I6
sS'Mycoplasmataceae'
p207
I7
sS'Nocardiopsaceae'
p208
I3
sS'Methanobacteriaceae'
p209
I12
sS'Deferribacteraceae'
p210
I26
sS'Helicobacteraceae'
p211
I55
sS'Halomonadaceae'
p212
I147
sS'Micrococcaceae'
p213
I650
sS'Hyphomicrobiaceae'
p214
I1
sS'Bacillaceae'
p215
I121
sS'Ruminococcaceae'
p216
I18722
sS'Sanguibacteraceae'
p217
I1
sS'Nitrosomonadaceae'
p218
I1
sS'Acetobacteraceae'
p219
I3
sS'Paenibacillaceae'
p220
I30
sS'Colwelliaceae'
p221
I1
sS'Rhodocyclaceae'
p222
I5
sS'Lachnospiraceae'
p223
I28589
sS'Carnobacteriaceae'
p224
I20
sS'Pasteurellaceae'
p225
I30
sS'Peptostreptococcaceae'
p226
I1848
sS'Staphylococcaceae'
p227
I12
sS'Incertae Sedis'
p228
I167
sS'Chlamydiaceae'
p229
I1
sS'Marinilabiaceae'
p230
I1
sS'Sulfolobaceae'
p231
I1
sS'Coriobacteriaceae'
p232
I1076
sS'Microbacteriaceae'
p233
I26
sS'Enterococcaceae'
p234
I123
sS'Sphingobacteriaceae'
p235
I27
sS'Verrucomicrobiaceae'
p236
I1149
sS'Peptococcaceae'
p237
I68
sS'Anaerovorax '
p238
I21
sS'Eubacteriaceae'
p239
I31
sS'Thermoanaerobacteraceae'
p240
I2
sS'Vestibuliferida'
p241
I2
sS'Caulobacteraceae'
p242
I13
sS'Desulfovibrionaceae'
p243
I94
sS'Eimeriidae'
p244
I25
sS'Anaeroplasmataceae'
p245
I51
sS'Streptococcaceae'
p246
I1482
sS'Sphingomonadaceae'
p247
I9
sS'Bacteroidaceae'
p248
I7465
sS'Rhodobacteraceae'
p249
I6
sS'Veillonellaceae'
p250
I1682
sS'Saccharomycetes'
p251
I1
sS'Bradyrhizobiaceae'
p252
I2
sS'Brachyspiraceae'
p253
I2
sS'Planococcaceae'
p254
I651
sS'Succinivibrionaceae'
p255
I565
sS'Pseudomonadaceae'
p256
I249
sS'Cellulomonadaceae'
p257
I6
sS'Burkholderiaceae'
p258
I24
sS'Aeromonadaceae'
p259
I51
sS'Finegoldia'
p260
I1
sS'uncultured'
p261
I174
sS'Methylobacteriaceae'
p262
I1
sS'Victivallaceae'
p263
I29
sS'Fusobacteriaceae'
p264
I289
sS'Spirochaetaceae'
p265
I158
sS'Sarcocystidae'
p266
I1
sS'Clostridiaceae'
p267
I2445
sS'Rikenellaceae'
p268
I1498
sS'Fibrobacteraceae'
p269
I64
sS'Propionibacteriaceae'
p270
I6
sS'Elusimicrobiaceae'
p271
I7
sS'Brevibacteriaceae'
p272
I1
sS'Oxalobacteraceae'
p273
I13
sS'Methanomicrobiaceae'
p274
I13
sS'Rubritaleaceae'
p275
I1
sS'Anaerolineales'
p276
I6
sS'Synergistaceae'
p277
I25
sS'Moraxellaceae'
p278
I95
sS'Campylobacteraceae'
p279
I30
sS'Porphyromonadaceae'
p280
I894
sS'Peptoniphilus'
p281
I1
sS'Aerococcaceae'
p282
I6
sS'Brucellaceae'
p283
I4
sS'Leotiomyceta'
p284
I1
sS'Prevotellaceae'
p285
I6035
sS'Dermatophilaceae'
p286
I22
sS'Xanthomonadaceae'
p287
I23
sS'Streptomycetaceae'
p288
I2
sS'Corynebacteriaceae'
p289
I21
sS'Comamonadaceae'
p290
I169
sS'Leuconostocaceae'
p291
I217
sS'Enterobacteriaceae'
p292
I1503
sS'Alcaligenaceae'
p293
I371
sS'Cryptosporidiidae'
p294
I38
sS'Flavobacteriaceae'
p295
I34
sS'Bifidobacteriaceae'
p296
I452
sS'Planctomycetaceae'
p297
I10
sS'Vibrionaceae'
p298
I23
sS'Psychromonadaceae'
p299
I3
sS'Deinococcaceae'
p300
I1
sS'Dietziaceae'
p301
I2
ssI8
(dp302
S'Cloacibacillus'
p303
I3
sS'Holdemania'
p304
I7
sS'Solobacterium'
p305
I79
sS'Adlercreutzia'
p306
I15
sS'Ruminococcus'
p307
I2485
sS'Sharpea'
p308
I8
sS'Candidatus Symbiothrix'
p309
I4
sS'Kurthia'
p310
I44
sS'Anaerofustis'
p311
I7
sS'Sulfolobus'
p312
I1
sS'Paenibacillus'
p313
I30
sS'Johnsonella'
p314
I36
sS'Pseudobutyrivibrio'
p315
I2626
sS'Brochothrix'
p316
I1
sS'Naxibacter'
p317
I5
sS'Nocardiopsis'
p318
I3
sS'Planococcus'
p319
I1
sS'Anaerococcus'
p320
I1
sS'Eggerthella'
p321
I18
sS'Terribacillus'
p322
I3
sS'Papillibacter'
p323
I14
sS'Incertae Sedis'
p324
I12297
sS'Paraprevotella'
p325
I37
sS'Gordonibacter'
p326
I7
sS'Slackia'
p327
I57
sS'Veillonella'
p328
I108
sS'Balantidiidae'
p329
I2
sS'Phocaeicola'
p330
I20
sS'Acetobacter'
p331
I3
sS'Victivallis'
p332
I19
sS'RC9 gut group'
p333
I881
sS'Akkermansia'
p334
I1149
sS'Mycoplasma'
p335
I1
sS'Leeia'
p336
I8
sS'Sedimentibacter'
p337
I1
sS'Mogibacterium'
p338
I80
sS'Flavobacterium'
p339
I25
sS'Klebsiella'
p340
I45
sS'Caldicoprobacter'
p341
I2
sS'Dietzia'
p342
I2
sS'Pyramidobacter'
p343
I3
sS'Pedobacter'
p344
I2
sS'Chlamydophila'
p345
I1
sS'Barnesiella'
p346
I208
sS'Anaerolineaceae'
p347
I6
sS'Arcobacter'
p348
I2
sS'Devosia'
p349
I1
sS'Cycloposthiidae'
p350
I1
sS'Staphylococcus'
p351
I9
sS'Eubacterium'
p352
I11
sS'Bifidobacterium'
p353
I445
sS'Parentodiniidae'
p354
I1
sS'Proteus'
p355
I4
sS'Turicibacter'
p356
I306
sS'Pseudomonas'
p357
I240
sS'Lysinibacillus'
p358
I199
sS'Howardella'
p359
I12
sS'Candidatus Arthromitus'
p360
I1
sS'Asaccharobacter'
p361
I1
sS'Succiniclasticum'
p362
I26
sS'Elusimicrobium'
p363
I7
sS'Microlunatus'
p364
I1
sS'Helicobacter'
p365
I55
sS'Sutterella'
p366
I263
sS'Acetobacterium'
p367
I2
sS'U29-B03'
p368
I1
sS'Raoultella'
p369
I3
sS'Lactococcus'
p370
I133
sS'Oerskovia'
p371
I6
sS'Serratia'
p372
I8
sS'Orbus'
p373
I1
sS'Cellvibrio'
p374
I8
sS'Megasphaera'
p375
I134
sS'Nocardioides'
p376
I5
sS'Variovorax'
p377
I8
sS'Vibrio'
p378
I23
sS'Rahnella'
p379
I1
sS'Peptococcus'
p380
I27
sS'Xylanibacter'
p381
I85
sS'Thalassospira'
p382
I52
sS'Carnobacterium'
p383
I16
sS'Listeria'
p384
I1
sS'Sphingomonas'
p385
I4
sS'Alkaliphilus'
p386
I1
sS'Bacillus'
p387
I107
sS'Rs-D38 termite group'
p388
I1
sS'Brachybacterium'
p389
I3
sS'Anaerostipes'
p390
I16
sS'Leuconostoc'
p391
I189
sS'Bacteroides'
p392
I7465
sS'Cronobacter'
p393
I4
sS'Pantoea'
p394
I1
sS'Saccharomycetales'
p395
I1
sS'Sphingopyxis'
p396
I1
sS'Coprothermobacter'
p397
I2
sS'Arthrobacter'
p398
I650
sS'Streptococcus'
p399
I1348
sS'Yersinia'
p400
I10
sS'Psychromonas'
p401
I3
sS'Rhodanobacter'
p402
I1
sS'Marvinbryantia'
p403
I251
sS'Lactobacillus'
p404
I879
sS'Succinivibrio'
p405
I527
sS'Burkholderia'
p406
I1
sS'Ochrobactrum'
p407
I1
sS'Nitrobacter'
p408
I1
sS'Synergistes'
p409
I1
sS'Myroides'
p410
I1
sS'Collinsella'
p411
I710
sS'Ruminobacter'
p412
I36
sS'Rhizobium'
p413
I6
sS'Rhodococcus'
p414
I18
sS'Brevundimonas'
p415
I13
sS'Perlucidibaca'
p416
I7
sS'Gelria'
p417
I1
sS'Allisonella'
p418
I12
sS'Acidaminococcus'
p419
I37
sS'Sphingobacterium'
p420
I23
sS'Luteococcus'
p421
I1
sS'Sarcina'
p422
I665
sS'Odoribacter'
p423
I73
sS'Microbacterium'
p424
I10
sS'Plesiomonas'
p425
I46
sS'Hafnia-Obesumbacterium'
p426
I3
sS'Cystoisospora'
p427
I1
sS'Brevibacterium'
p428
I1
sS'Jeotgalicoccus'
p429
I2
sS'Stenotrophomonas'
p430
I22
sS'Histomonas'
p431
I1
sS'Sphingobium'
p432
I4
sS'Leucobacter'
p433
I10
sS'Spirochaeta'
p434
I7
sS'Blepharocorythidae'
p435
I2
sS'Delftia'
p436
I11
sS'Anaerosporobacter'
p437
I36
sS'Dialister'
p438
I597
sS'Kluyvera'
p439
I1
sS'Acidovorax'
p440
I7
sS'Catabacter'
p441
I20
sS'Acetitomaculum'
p442
I144
sS'Desulfovibrio'
p443
I63
sS'Moorella'
p444
I1
sS'Anaeroplasma'
p445
I51
sS'Actinomyces'
p446
I2
sS'Spirodiniidae'
p447
I3
sS'Sanguibacter'
p448
I1
sS'Hespellia'
p449
I2
sS'Blautia'
p450
I6090
sS'Troglodytellidae'
p451
I8
sS'Solibacillus'
p452
I181
sS'Budvicia'
p453
I1
sS'Streptomyces'
p454
I2
sS'Rubritalea'
p455
I1
sS'Haemophilus'
p456
I29
sS'Methanobrevibacter'
p457
I9
sS'Anaerovibrio'
p458
I167
sS'hoa5-07d05 gut group'
p459
I13
sS'Neisseria'
p460
I3
sS'Proteiniphilum'
p461
I1
sS'Methanogenium'
p462
I13
sS'Nocardia'
p463
I1
sS'Alistipes'
p464
I563
sS'Oscillibacter'
p465
I58
sS'Buetschliidae'
p466
I3
sS'Gemella'
p467
I9
sS'Polydiniellidae'
p468
I1
sS'Exiguobacterium'
p469
I1
sS'Paludibacter'
p470
I31
sS'Ottowia'
p471
I2
sS'Megamonas'
p472
I98
sS'p-1088-a5 gut group'
p473
I9
sS'Allobaculum'
p474
I274
sS'Dermatophilus'
p475
I22
sS'Catenibacterium'
p476
I343
sS'Brachyspira'
p477
I2
sS'Acinetobacter'
p478
I84
sS'Simplicispira'
p479
I1
sS'Herbaspirillum'
p480
I1
sS'Alcaligenes'
p481
I1
sS'Oribacterium'
p482
I79
sS'Asteroleplasma'
p483
I12
sS'Methanolobus'
p484
I2
sS'Oscillospira'
p485
I18
sS'Fusobacterium'
p486
I161
sS'Okibacterium'
p487
I1
sS'Laribacter'
p488
I44
sS'Pseudochrobactrum'
p489
I3
sS'Mitsuokella'
p490
I63
sS'Selenomonas'
p491
I5
sS'Atopobium'
p492
I15
sS'Salmonella'
p493
I57
sS'Alkalibacterium'
p494
I1
sS'Gardnerella'
p495
I7
sS'Schwartzia'
p496
I1
sS'Coprococcus'
p497
I970
sS'Butyrivibrio'
p498
I181
sS'Propionibacterium'
p499
I4
sS'Corynebacterium'
p500
I21
sS'Lachnospira'
p501
I512
sS'dgA-11 gut group'
p502
I19
sS'Parabacteroides'
p503
I547
sS'Denitrobacterium'
p504
I2
sS'Coprobacillus'
p505
I14
sS'Enterococcus'
p506
I121
sS'Deinococcus'
p507
I1
sS'Olsenella'
p508
I7
sS'Sordariomyceta'
p509
I1
sS'Psychrobacter'
p510
I4
sS'Ralstonia'
p511
I23
sS'Shuttleworthia'
p512
I14
sS'Weissella'
p513
I28
sS'Bilophila'
p514
I31
sS'Eimeria'
p515
I25
sS'Cetobacterium'
p516
I128
sS'Peptostreptococcus'
p517
I10
sS'Mycetocola'
p518
I1
sS'SP3-e08'
p519
I13
sS'Deefgea'
p520
I1
sS'Hydrogenoanaerobacterium'
p521
I5
sS'Campylobacter'
p522
I28
sS'Cryptosporidium'
p523
I38
sS'Butyricimonas'
p524
I30
sS'Curtobacterium'
p525
I4
sS'uncultured'
p526
I16675
sS'Faecalibacterium'
p527
I5392
sS'Weeksella'
p528
I2
sS'Tetratrichomonas'
p529
I1
sS'Anaerofilum'
p530
I7
sS'Pediococcus'
p531
I1
sS'Dechloromonas'
p532
I4
sS'Vagococcus'
p533
I2
sS'Parasporobacterium-Sporobacterium'
p534
I5
sS'Aerococcus'
p535
I3
sS'Fibrobacter'
p536
I64
sS'Comamonas'
p537
I138
sS'Ketogulonicigenium'
p538
I1
sS'Roseburia'
p539
I1579
sS'Prevotella'
p540
I4900
sS'Geobacillus'
p541
I11
sS'Halomonas'
p542
I86
sS'CPla-4 termite group'
p543
I1
sS'Providencia'
p544
I13
sS'Treponema'
p545
I151
sS'Fastidiosipila'
p546
I51
sS'Nitrosospira'
p547
I1
sS'Aeromonas'
p548
I51
sS'Facklamia'
p549
I2
sS'Robinsoniella'
p550
I1
sS'Parasutterella'
p551
I106
sS'Escherichia-Shigella'
p552
I1208
sS'Mucispirillum'
p553
I26
sS'Achromobacter'
p554
I1
sS'Shewanella'
p555
I1
sS'Moryella'
p556
I26
sS'Varibaculum'
p557
I2
sS'Citrobacter'
p558
I8
sS'Clostridium'
p559
I1777
sS'Methanobacterium'
p560
I3
sS'Planomicrobium'
p561
I27
sS'Subdoligranulum'
p562
I1809
sS'Rikenella'
p563
I7
sS'Cellulosilyticum'
p564
I14
sS'Janthinobacterium'
p565
I1
sS'Anaerotruncus'
p566
I230
sS'Quinella'
p567
I2
sS'Enterobacter'
p568
I74
sS'Sporosarcina'
p569
I14
sS'Pseudoramibacter'
p570
I4
sS'Sporotalea'
p571
I1
sS'Enterorhabdus'
p572
I48
sS'Oxalobacter'
p573
I5
sS'Phascolarctobacterium'
p574
I419
sS'Syntrophococcus'
p575
I13
sS'Desemzia'
p576
I2
sS'Epulopiscium'
p577
I14
sS'Dorea'
p578
I893
sS'Methylobacterium'
p579
I1
ssI9
(dp580
S''
I66
sS'Balantidium'
p581
I2
sS'Parentodinium'
p582
I1
sS'uncultured'
p583
I6
sS'Cycloposthium'
p584
I1
sS'Blepharocorys'
p585
I2
sS'Triadinium'
p586
I2
sS'Troglodytella'
p587
I8
sS'Dipodascaceae'
p588
I1
sS'Spirodinium'
p589
I1
sS'Bundleia'
p590
I3
sS'Polydiniella'
p591
I1
sS'Sordariomycetes'
p592
I1
ssI10
(dp593
S''
I21
sS'Hypocreomycetidae'
p594
I1
sS'Yarrowia'
p595
I1
ssI11
(dp596
S''
I1
sS'Hypocreales'
p597
I1
ssI12
(dp598
S'Hypocreaceae'
p599
I1
ssI13
(dp600
S'mitosporic Hypocreaceae'
p601
I1
ssI14
(dp602
S'Trichoderma'
p603
I1
ssI15
(dp604
S'Tricoderma viride species complex'
p605
I1
ssI16
(dp606
S''
I1
ss.